(lp1
S'http://www.thebostoncalendar.com/events/presentation-of-the-fay-chandler-award-for-emerging-artists-in-memory-of-boston-artist-and-philanthropist-fay-chandler-at-boston-s-city-hall'
p2
aS'http://www.thebostoncalendar.com/events/presentation-of-the-fay-chandler-award-for-emerging-artists-in-memory-of-boston-artist-and-philanthropist-fay-chandler-at-boston-s-city-hall'
p3
aS'http://www.thebostoncalendar.comhttp://www.thebostoncalendar.com/events/presentation-of-the-fay-chandler-award-for-emerging-artists-in-memory-of-boston-artist-and-philanthropist-fay-chandler-at-boston-s-city-hall'
p4
aS'http://www.thebostoncalendar.com/events/startups-solving-civic-problems-the-technology-government-nexus'
p5
aS'http://www.thebostoncalendar.com/events/startups-solving-civic-problems-the-technology-government-nexus'
p6
aS'http://www.thebostoncalendar.comhttp://www.thebostoncalendar.com/events/startups-solving-civic-problems-the-technology-government-nexus'
p7
aS'http://www.thebostoncalendar.com/events/passim-presents-free-summer-concert-series-in-harvard-square--12'
p8
aS'http://www.thebostoncalendar.com/events/passim-presents-free-summer-concert-series-in-harvard-square--12'
p9
aS'http://www.thebostoncalendar.comhttp://www.thebostoncalendar.com/events/passim-presents-free-summer-concert-series-in-harvard-square--12'
p10
aS'http://www.thebostoncalendar.com/events/disrupting-an-industry-without-venture-capital-funding'
p11
aS'http://www.thebostoncalendar.comhttp://www.thebostoncalendar.com/events/disrupting-an-industry-without-venture-capital-funding'
p12
aS'http://www.thebostoncalendar.com/events/2015-boston-landmarks-orchestra-gala'
p13
aS'http://www.thebostoncalendar.com/events/2015-boston-landmarks-orchestra-gala'
p14
aS'http://www.thebostoncalendar.comhttp://www.thebostoncalendar.com/events/2015-boston-landmarks-orchestra-gala'
p15
aS'http://www.thebostoncalendar.com/events/african-beat'
p16
aS'http://www.thebostoncalendar.com/events/african-beat'
p17
aS'http://www.thebostoncalendar.comhttp://www.thebostoncalendar.com/events/african-beat'
p18
aS'http://www.thebostoncalendar.com/events/intro-to-zen-meditation-at-cambridge-zen-center--93'
p19
aS'http://www.thebostoncalendar.com/events/intro-to-zen-meditation-at-cambridge-zen-center--93'
p20
aS'http://www.thebostoncalendar.comhttp://www.thebostoncalendar.com/events/intro-to-zen-meditation-at-cambridge-zen-center--93'
p21
aS'http://www.thebostoncalendar.com/events/strandbeests-in-boston'
p22
aS'http://www.thebostoncalendar.com/events/strandbeests-in-boston'
p23
aS'http://www.thebostoncalendar.comhttp://www.thebostoncalendar.com/events/strandbeests-in-boston'
p24
aS'http://www.thebostoncalendar.com/events/noisefloor-sessions-ft-alec-hutson-trio'
p25
aS'http://www.thebostoncalendar.com/events/noisefloor-sessions-ft-alec-hutson-trio'
p26
aS'http://www.thebostoncalendar.comhttp://www.thebostoncalendar.com/events/noisefloor-sessions-ft-alec-hutson-trio'
p27
aS'http://www.thebostoncalendar.com/events/narrated-charles-river-sightseeing-cruise'
p28
aS'http://www.thebostoncalendar.com/events/narrated-charles-river-sightseeing-cruise'
p29
aS'http://www.thebostoncalendar.comhttp://www.thebostoncalendar.com/events/narrated-charles-river-sightseeing-cruise'
p30
aS'http://www.thebostoncalendar.com/events/the-map-is-not-the-territory-parallel-paths-palestinians-native-americans-irish'
p31
aS'http://www.thebostoncalendar.com/events/the-map-is-not-the-territory-parallel-paths-palestinians-native-americans-irish'
p32
aS'http://www.thebostoncalendar.comhttp://www.thebostoncalendar.com/events/the-map-is-not-the-territory-parallel-paths-palestinians-native-americans-irish'
p33
aS'http://www.thebostoncalendar.com/events/architecture-cruise--16'
p34
aS'http://www.thebostoncalendar.com/events/architecture-cruise--16'
p35
aS'http://www.thebostoncalendar.comhttp://www.thebostoncalendar.com/events/architecture-cruise--16'
p36
aS'http://www.thebostoncalendar.com/events/the-map-is-not-the-territory--2'
p37
aS'http://www.thebostoncalendar.com/events/the-map-is-not-the-territory--2'
p38
aS'http://www.thebostoncalendar.comhttp://www.thebostoncalendar.com/events/the-map-is-not-the-territory--2'
p39
aS'http://www.thebostoncalendar.com/events/test-ride-the-copenhagen-wheel--15'
p40
aS'http://www.thebostoncalendar.com/events/test-ride-the-copenhagen-wheel--15'
p41
aS'http://www.thebostoncalendar.comhttp://www.thebostoncalendar.com/events/test-ride-the-copenhagen-wheel--15'
p42
aS'http://www.thebostoncalendar.com/events/bird-watching-for-beginners--2'
p43
aS'http://www.thebostoncalendar.com/events/bird-watching-for-beginners--2'
p44
aS'http://www.thebostoncalendar.comhttp://www.thebostoncalendar.com/events/bird-watching-for-beginners--2'
p45
aS'http://www.thebostoncalendar.com/events/new-blue-makers-market--6'
p46
aS'http://www.thebostoncalendar.com/events/new-blue-makers-market--6'
p47
aS'http://www.thebostoncalendar.comhttp://www.thebostoncalendar.com/events/new-blue-makers-market--6'
p48
aS'http://www.thebostoncalendar.com/events/finding-fay-at-the-bca-free-family-festival-at-the-boston-center-for-the-arts'
p49
aS'http://www.thebostoncalendar.com/events/finding-fay-at-the-bca-free-family-festival-at-the-boston-center-for-the-arts'
p50
aS'http://www.thebostoncalendar.comhttp://www.thebostoncalendar.com/events/finding-fay-at-the-bca-free-family-festival-at-the-boston-center-for-the-arts'
p51
aS'http://www.thebostoncalendar.com/events/pemberfest-hyperlocal-craft-beer-festival--2'
p52
aS'http://www.thebostoncalendar.com/events/pemberfest-hyperlocal-craft-beer-festival--2'
p53
aS'http://www.thebostoncalendar.comhttp://www.thebostoncalendar.com/events/pemberfest-hyperlocal-craft-beer-festival--2'
p54
aS'http://www.thebostoncalendar.com/events/irish-music-the-druid-cambridge--62'
p55
aS'http://www.thebostoncalendar.com/events/irish-music-the-druid-cambridge--62'
p56
aS'http://www.thebostoncalendar.comhttp://www.thebostoncalendar.com/events/irish-music-the-druid-cambridge--62'
p57
aS'http://www.thebostoncalendar.com/events/tokyo-night'
p58
aS'http://www.thebostoncalendar.com/events/tokyo-night'
p59
aS'http://www.thebostoncalendar.comhttp://www.thebostoncalendar.com/events/tokyo-night'
p60
aS'http://www.thebostoncalendar.com/events/don-t-look-away'
p61
aS'http://www.thebostoncalendar.com/events/don-t-look-away'
p62
aS'http://www.thebostoncalendar.comhttp://www.thebostoncalendar.com/events/don-t-look-away'
p63
aS'http://www.thebostoncalendar.com/events/all-access-improv--33'
p64
aS'http://www.thebostoncalendar.com/events/all-access-improv--33'
p65
aS'http://www.thebostoncalendar.comhttp://www.thebostoncalendar.com/events/all-access-improv--33'
p66
aS'http://www.thebostoncalendar.com/events/new-location-kick-off-dinner-party'
p67
aS'http://www.thebostoncalendar.com/events/new-location-kick-off-dinner-party'
p68
aS'http://www.thebostoncalendar.comhttp://www.thebostoncalendar.com/events/new-location-kick-off-dinner-party'
p69
aS'http://www.thebostoncalendar.com/events/soulelujah--35'
p70
aS'http://www.thebostoncalendar.com/events/soulelujah--35'
p71
aS'http://www.thebostoncalendar.comhttp://www.thebostoncalendar.com/events/soulelujah--35'
p72
aS'http://www.thebostoncalendar.com/events/free-nature-walks-and-painting-at-mass-audubon-s-nature-center-in-mattapan-as-part-of-the-finding-fay-free-family-festival'
p73
aS'http://www.thebostoncalendar.com/events/free-nature-walks-and-painting-at-mass-audubon-s-nature-center-in-mattapan-as-part-of-the-finding-fay-free-family-festival'
p74
aS'http://www.thebostoncalendar.comhttp://www.thebostoncalendar.com/events/free-nature-walks-and-painting-at-mass-audubon-s-nature-center-in-mattapan-as-part-of-the-finding-fay-free-family-festival'
p75
aS'http://www.thebostoncalendar.com/events/finding-fay-festival-free-nature-walks-and-painting-at-mass-audubon-s-nature-center-in-mattapan'
p76
aS'http://www.thebostoncalendar.com/events/finding-fay-festival-free-nature-walks-and-painting-at-mass-audubon-s-nature-center-in-mattapan'
p77
aS'http://www.thebostoncalendar.comhttp://www.thebostoncalendar.com/events/finding-fay-festival-free-nature-walks-and-painting-at-mass-audubon-s-nature-center-in-mattapan'
p78
aS'http://www.thebostoncalendar.com/events/free-art-making-at-the-cambridge-art-association-as-part-of-the-finding-fay-free-family-festival'
p79
aS'http://www.thebostoncalendar.com/events/free-art-making-at-the-cambridge-art-association-as-part-of-the-finding-fay-free-family-festival'
p80
aS'http://www.thebostoncalendar.comhttp://www.thebostoncalendar.com/events/free-art-making-at-the-cambridge-art-association-as-part-of-the-finding-fay-free-family-festival'
p81
aS'http://www.thebostoncalendar.com/events/finding-fay-festival-free-art-making-at-the-cambridge-art-association'
p82
aS'http://www.thebostoncalendar.com/events/finding-fay-festival-free-art-making-at-the-cambridge-art-association'
p83
aS'http://www.thebostoncalendar.comhttp://www.thebostoncalendar.com/events/finding-fay-festival-free-art-making-at-the-cambridge-art-association'
p84
aS'http://www.thebostoncalendar.com/events/finding-fay-family-day'
p85
aS'http://www.thebostoncalendar.com/events/finding-fay-family-day'
p86
aS'http://www.thebostoncalendar.comhttp://www.thebostoncalendar.com/events/finding-fay-family-day'
p87
aS'http://www.thebostoncalendar.com/events/23rd-annual-cambridge-carnival'
p88
aS'http://www.thebostoncalendar.com/events/23rd-annual-cambridge-carnival'
p89
aS'http://www.thebostoncalendar.comhttp://www.thebostoncalendar.com/events/23rd-annual-cambridge-carnival'
p90
aS'http://www.thebostoncalendar.com/events/free-introductory-talk-on-transcendental-meditation-tm--54'
p91
aS'http://www.thebostoncalendar.com/events/free-introductory-talk-on-transcendental-meditation-tm--54'
p92
aS'http://www.thebostoncalendar.comhttp://www.thebostoncalendar.com/events/free-introductory-talk-on-transcendental-meditation-tm--54'
p93
aS'http://www.thebostoncalendar.com/events/science-and-cooking-2015-lecture-series--2'
p94
aS'http://www.thebostoncalendar.com/events/science-and-cooking-2015-lecture-series--2'
p95
aS'http://www.thebostoncalendar.comhttp://www.thebostoncalendar.com/events/science-and-cooking-2015-lecture-series--2'
p96
aS'http://www.thebostoncalendar.com/events/cambridge-charrette-on-homelessness'
p97
aS'http://www.thebostoncalendar.com/events/cambridge-charrette-on-homelessness'
p98
aS'http://www.thebostoncalendar.comhttp://www.thebostoncalendar.com/events/cambridge-charrette-on-homelessness'
p99
aS'http://www.thebostoncalendar.com/events/fiorella-s-outdoor-festa-di-strada'
p100
aS'http://www.thebostoncalendar.comhttp://www.thebostoncalendar.com/events/fiorella-s-outdoor-festa-di-strada'
p101
aS'http://www.thebostoncalendar.com/events/farmers-market-at-harvard--77'
p102
aS'http://www.thebostoncalendar.com/events/farmers-market-at-harvard--77'
p103
aS'http://www.thebostoncalendar.comhttp://www.thebostoncalendar.com/events/farmers-market-at-harvard--77'
p104
aS'http://www.thebostoncalendar.com/events/free-boston-landmarks-orchestra-concert-at-the-hatch-shell-as-part-of-the-finding-fay-free-family-festival'
p105
aS'http://www.thebostoncalendar.com/events/free-boston-landmarks-orchestra-concert-at-the-hatch-shell-as-part-of-the-finding-fay-free-family-festival'
p106
aS'http://www.thebostoncalendar.comhttp://www.thebostoncalendar.com/events/free-boston-landmarks-orchestra-concert-at-the-hatch-shell-as-part-of-the-finding-fay-free-family-festival'
p107
aS'http://www.thebostoncalendar.com/events/bluegrass-pickin-party-at-the-cantab--50'
p108
aS'http://www.thebostoncalendar.com/events/bluegrass-pickin-party-at-the-cantab--50'
p109
aS'http://www.thebostoncalendar.comhttp://www.thebostoncalendar.com/events/bluegrass-pickin-party-at-the-cantab--50'
p110
aS'http://www.thebostoncalendar.com/events/cambridge-charrette-on-homelessness--2'
p111
aS'http://www.thebostoncalendar.com/events/cambridge-charrette-on-homelessness--2'
p112
aS'http://www.thebostoncalendar.comhttp://www.thebostoncalendar.com/events/cambridge-charrette-on-homelessness--2'
p113
aS'http://www.thebostoncalendar.com/events/boston-couchsurfing-weekly-meet-up--259'
p114
aS'http://www.thebostoncalendar.com/events/boston-couchsurfing-weekly-meet-up--259'
p115
aS'http://www.thebostoncalendar.comhttp://www.thebostoncalendar.com/events/boston-couchsurfing-weekly-meet-up--259'
p116
aS'http://www.thebostoncalendar.com/events/ryan-lee-fitz--16'
p117
aS'http://www.thebostoncalendar.comhttp://www.thebostoncalendar.com/events/ryan-lee-fitz--16'
p118
aS'http://www.thebostoncalendar.com/events/park-ing-day-picnic-with-social-artists-and-writers'
p119
aS'http://www.thebostoncalendar.comhttp://www.thebostoncalendar.com/events/park-ing-day-picnic-with-social-artists-and-writers'
p120
aS'http://www.thebostoncalendar.com/events/cambridge-charrette-on-homelessness--3'
p121
aS'http://www.thebostoncalendar.com/events/cambridge-charrette-on-homelessness--3'
p122
aS'http://www.thebostoncalendar.comhttp://www.thebostoncalendar.com/events/cambridge-charrette-on-homelessness--3'
p123
aS'http://www.thebostoncalendar.com/events/architecture-cruise--17'
p124
aS'http://www.thebostoncalendar.com/events/architecture-cruise--17'
p125
aS'http://www.thebostoncalendar.comhttp://www.thebostoncalendar.com/events/architecture-cruise--17'
p126
aS'http://www.thebostoncalendar.com/events/the-map-is-not-the-territory--3'
p127
aS'http://www.thebostoncalendar.com/events/the-map-is-not-the-territory--3'
p128
aS'http://www.thebostoncalendar.comhttp://www.thebostoncalendar.com/events/the-map-is-not-the-territory--3'
p129
aS'http://www.thebostoncalendar.com/events/trouble-with-jellyfish-exhibition-at-le-laboratoire-cambridge'
p130
aS'http://www.thebostoncalendar.com/events/trouble-with-jellyfish-exhibition-at-le-laboratoire-cambridge'
p131
aS'http://www.thebostoncalendar.comhttp://www.thebostoncalendar.com/events/trouble-with-jellyfish-exhibition-at-le-laboratoire-cambridge'
p132
aS'http://www.thebostoncalendar.com/events/test-ride-the-copenhagen-wheel--16'
p133
aS'http://www.thebostoncalendar.com/events/test-ride-the-copenhagen-wheel--16'
p134
aS'http://www.thebostoncalendar.comhttp://www.thebostoncalendar.com/events/test-ride-the-copenhagen-wheel--16'
p135
aS'http://www.thebostoncalendar.com/events/repast-from-the-past-a-taste-of-17th-century-new-england'
p136
aS'http://www.thebostoncalendar.com/events/repast-from-the-past-a-taste-of-17th-century-new-england'
p137
aS'http://www.thebostoncalendar.comhttp://www.thebostoncalendar.com/events/repast-from-the-past-a-taste-of-17th-century-new-england'
p138
aS'http://www.thebostoncalendar.com/events/q-a-and-book-signing-with-father-michael-collins'
p139
aS'http://www.thebostoncalendar.com/events/q-a-and-book-signing-with-father-michael-collins'
p140
aS'http://www.thebostoncalendar.comhttp://www.thebostoncalendar.com/events/q-a-and-book-signing-with-father-michael-collins'
p141
aS'http://www.thebostoncalendar.com/events/strip-zeppelin--2'
p142
aS'http://www.thebostoncalendar.com/events/strip-zeppelin--2'
p143
aS'http://www.thebostoncalendar.comhttp://www.thebostoncalendar.com/events/strip-zeppelin--2'
p144
aS'http://www.thebostoncalendar.com/events/we-dig-free-fridays-presents-ghost-pepper-soulpax'
p145
aS'http://www.thebostoncalendar.com/events/we-dig-free-fridays-presents-ghost-pepper-soulpax'
p146
aS'http://www.thebostoncalendar.comhttp://www.thebostoncalendar.com/events/we-dig-free-fridays-presents-ghost-pepper-soulpax'
p147
aS'http://www.thebostoncalendar.com/events/beginner-swing-dance-classes-boston-lindy-hop--4'
p148
aS'http://www.thebostoncalendar.com/events/beginner-swing-dance-classes-boston-lindy-hop--4'
p149
aS'http://www.thebostoncalendar.comhttp://www.thebostoncalendar.com/events/beginner-swing-dance-classes-boston-lindy-hop--4'
p150
aS'http://www.thebostoncalendar.com/events/irish-music-the-druid-cambridge--63'
p151
aS'http://www.thebostoncalendar.com/events/irish-music-the-druid-cambridge--63'
p152
aS'http://www.thebostoncalendar.comhttp://www.thebostoncalendar.com/events/irish-music-the-druid-cambridge--63'
p153
aS'http://www.thebostoncalendar.com/events/don-t-look-away--2'
p154
aS'http://www.thebostoncalendar.com/events/don-t-look-away--2'
p155
aS'http://www.thebostoncalendar.comhttp://www.thebostoncalendar.com/events/don-t-look-away--2'
p156
aS'http://www.thebostoncalendar.com/events/all-access-improv--34'
p157
aS'http://www.thebostoncalendar.com/events/all-access-improv--34'
p158
aS'http://www.thebostoncalendar.comhttp://www.thebostoncalendar.com/events/all-access-improv--34'
p159
aS'http://www.thebostoncalendar.com/events/step-into-fall-dinner-party'
p160
aS'http://www.thebostoncalendar.comhttp://www.thebostoncalendar.com/events/step-into-fall-dinner-party'
p161
aS'http://www.thebostoncalendar.com/events/soulelujah--36'
p162
aS'http://www.thebostoncalendar.com/events/soulelujah--36'
p163
aS'http://www.thebostoncalendar.comhttp://www.thebostoncalendar.com/events/soulelujah--36'
p164
aS'http://www.thebostoncalendar.com/events/free-introductory-talk-on-transcendental-meditation-tm--55'
p165
aS'http://www.thebostoncalendar.com/events/free-introductory-talk-on-transcendental-meditation-tm--55'
p166
aS'http://www.thebostoncalendar.comhttp://www.thebostoncalendar.com/events/free-introductory-talk-on-transcendental-meditation-tm--55'
p167
aS'http://www.thebostoncalendar.com/events/composer-focus-stravinsky'
p168
aS'http://www.thebostoncalendar.com/events/composer-focus-stravinsky'
p169
aS'http://www.thebostoncalendar.comhttp://www.thebostoncalendar.com/events/composer-focus-stravinsky'
p170
aS'http://www.thebostoncalendar.com/events/object-management-group-technical-meeting'
p171
aS'http://www.thebostoncalendar.com/events/object-management-group-technical-meeting'
p172
aS'http://www.thebostoncalendar.comhttp://www.thebostoncalendar.com/events/object-management-group-technical-meeting'
p173
aS'http://www.thebostoncalendar.com/events/science-and-cooking-2015-lecture-series--3'
p174
aS'http://www.thebostoncalendar.com/events/science-and-cooking-2015-lecture-series--3'
p175
aS'http://www.thebostoncalendar.comhttp://www.thebostoncalendar.com/events/science-and-cooking-2015-lecture-series--3'
p176
aS'http://www.thebostoncalendar.com/events/massmouth-story-slam-starting-over'
p177
aS'http://www.thebostoncalendar.com/events/massmouth-story-slam-starting-over'
p178
aS'http://www.thebostoncalendar.comhttp://www.thebostoncalendar.com/events/massmouth-story-slam-starting-over'
p179
aS'http://www.thebostoncalendar.com/events/farmers-market-at-harvard--78'
p180
aS'http://www.thebostoncalendar.com/events/farmers-market-at-harvard--78'
p181
aS'http://www.thebostoncalendar.comhttp://www.thebostoncalendar.com/events/farmers-market-at-harvard--78'
p182
aS'http://www.thebostoncalendar.com/events/bluegrass-pickin-party-at-the-cantab--51'
p183
aS'http://www.thebostoncalendar.com/events/bluegrass-pickin-party-at-the-cantab--51'
p184
aS'http://www.thebostoncalendar.comhttp://www.thebostoncalendar.com/events/bluegrass-pickin-party-at-the-cantab--51'
p185
aS'http://www.thebostoncalendar.com/events/boston-couchsurfing-weekly-meet-up--260'
p186
aS'http://www.thebostoncalendar.com/events/boston-couchsurfing-weekly-meet-up--260'
p187
aS'http://www.thebostoncalendar.comhttp://www.thebostoncalendar.com/events/boston-couchsurfing-weekly-meet-up--260'
p188
aS'http://www.thebostoncalendar.com/events/architecture-cruise--18'
p189
aS'http://www.thebostoncalendar.com/events/architecture-cruise--18'
p190
aS'http://www.thebostoncalendar.comhttp://www.thebostoncalendar.com/events/architecture-cruise--18'
p191
aS'http://www.thebostoncalendar.com/events/the-map-is-not-the-territory--4'
p192
aS'http://www.thebostoncalendar.com/events/the-map-is-not-the-territory--4'
p193
aS'http://www.thebostoncalendar.comhttp://www.thebostoncalendar.com/events/the-map-is-not-the-territory--4'
p194
aS'http://www.thebostoncalendar.com/events/trouble-with-jellyfish-exhibition-at-le-laboratoire-cambridge--2'
p195
aS'http://www.thebostoncalendar.com/events/trouble-with-jellyfish-exhibition-at-le-laboratoire-cambridge--2'
p196
aS'http://www.thebostoncalendar.comhttp://www.thebostoncalendar.com/events/trouble-with-jellyfish-exhibition-at-le-laboratoire-cambridge--2'
p197
aS'http://www.thebostoncalendar.com/events/test-ride-the-copenhagen-wheel--17'
p198
aS'http://www.thebostoncalendar.com/events/test-ride-the-copenhagen-wheel--17'
p199
aS'http://www.thebostoncalendar.comhttp://www.thebostoncalendar.com/events/test-ride-the-copenhagen-wheel--17'
p200
aS'http://www.thebostoncalendar.com/events/vivalatino-cambridge'
p201
aS'http://www.thebostoncalendar.com/events/vivalatino-cambridge'
p202
aS'http://www.thebostoncalendar.comhttp://www.thebostoncalendar.com/events/vivalatino-cambridge'
p203
aS'http://www.thebostoncalendar.com/events/emw-block-party-all-day-showcase-fundraiser'
p204
aS'http://www.thebostoncalendar.com/events/emw-block-party-all-day-showcase-fundraiser'
p205
aS'http://www.thebostoncalendar.comhttp://www.thebostoncalendar.com/events/emw-block-party-all-day-showcase-fundraiser'
p206
aS'http://www.thebostoncalendar.com/events/emw-block-party'
p207
aS'http://www.thebostoncalendar.comhttp://www.thebostoncalendar.com/events/emw-block-party'
p208
aS'http://www.thebostoncalendar.com/events/irish-music-the-druid-cambridge--64'
p209
aS'http://www.thebostoncalendar.com/events/irish-music-the-druid-cambridge--64'
p210
aS'http://www.thebostoncalendar.comhttp://www.thebostoncalendar.com/events/irish-music-the-druid-cambridge--64'
p211
aS'http://www.thebostoncalendar.com/events/all-access-improv--35'
p212
aS'http://www.thebostoncalendar.com/events/all-access-improv--35'
p213
aS'http://www.thebostoncalendar.comhttp://www.thebostoncalendar.com/events/all-access-improv--35'
p214
aS'http://www.thebostoncalendar.com/events/soulelujah--37'
p215
aS'http://www.thebostoncalendar.com/events/soulelujah--37'
p216
aS'http://www.thebostoncalendar.comhttp://www.thebostoncalendar.com/events/soulelujah--37'
p217
aS'http://www.thebostoncalendar.com/events/go-global-expo-2015'
p218
aS'http://www.thebostoncalendar.com/events/go-global-expo-2015'
p219
aS'http://www.thebostoncalendar.comhttp://www.thebostoncalendar.com/events/go-global-expo-2015'
p220
aS'http://www.thebostoncalendar.com/events/free-introductory-talk-on-transcendental-meditation-tm--56'
p221
aS'http://www.thebostoncalendar.com/events/free-introductory-talk-on-transcendental-meditation-tm--56'
p222
aS'http://www.thebostoncalendar.comhttp://www.thebostoncalendar.com/events/free-introductory-talk-on-transcendental-meditation-tm--56'
p223
aS'http://www.thebostoncalendar.com/events/cambridge-common-walking-tour'
p224
aS'http://www.thebostoncalendar.com/events/cambridge-common-walking-tour'
p225
aS'http://www.thebostoncalendar.comhttp://www.thebostoncalendar.com/events/cambridge-common-walking-tour'
p226
aS'http://www.thebostoncalendar.com/events/science-and-cooking-2015-lecture-series--4'
p227
aS'http://www.thebostoncalendar.com/events/science-and-cooking-2015-lecture-series--4'
p228
aS'http://www.thebostoncalendar.comhttp://www.thebostoncalendar.com/events/science-and-cooking-2015-lecture-series--4'
p229
aS'http://www.thebostoncalendar.com/events/farmers-market-at-harvard--79'
p230
aS'http://www.thebostoncalendar.com/events/farmers-market-at-harvard--79'
p231
aS'http://www.thebostoncalendar.comhttp://www.thebostoncalendar.com/events/farmers-market-at-harvard--79'
p232
aS'http://www.thebostoncalendar.com/events/author-q-a-and-signing-at-the-harvard-coop'
p233
aS'http://www.thebostoncalendar.com/events/author-q-a-and-signing-at-the-harvard-coop'
p234
aS'http://www.thebostoncalendar.comhttp://www.thebostoncalendar.com/events/author-q-a-and-signing-at-the-harvard-coop'
p235
aS'http://www.thebostoncalendar.com/events/bluegrass-pickin-party-at-the-cantab--52'
p236
aS'http://www.thebostoncalendar.com/events/bluegrass-pickin-party-at-the-cantab--52'
p237
aS'http://www.thebostoncalendar.comhttp://www.thebostoncalendar.com/events/bluegrass-pickin-party-at-the-cantab--52'
p238
aS'http://www.thebostoncalendar.com/events/grex-kenne-highland-of-the-gizmos-fable-grazer'
p239
aS'http://www.thebostoncalendar.comhttp://www.thebostoncalendar.com/events/grex-kenne-highland-of-the-gizmos-fable-grazer'
p240
aS'http://www.thebostoncalendar.com/events/boston-couchsurfing-weekly-meet-up--261'
p241
aS'http://www.thebostoncalendar.com/events/boston-couchsurfing-weekly-meet-up--261'
p242
aS'http://www.thebostoncalendar.comhttp://www.thebostoncalendar.com/events/boston-couchsurfing-weekly-meet-up--261'
p243
aS'http://www.thebostoncalendar.com/events/cambridge-aiff-kick-off'
p244
aS'http://www.thebostoncalendar.com/events/cambridge-aiff-kick-off'
p245
aS'http://www.thebostoncalendar.comhttp://www.thebostoncalendar.com/events/cambridge-aiff-kick-off'
p246
aS'http://www.thebostoncalendar.com/events/intro-to-zen-meditation-at-cambridge-zen-center--94'
p247
aS'http://www.thebostoncalendar.com/events/intro-to-zen-meditation-at-cambridge-zen-center--94'
p248
aS'http://www.thebostoncalendar.comhttp://www.thebostoncalendar.com/events/intro-to-zen-meditation-at-cambridge-zen-center--94'
p249
aS'http://www.thebostoncalendar.com/events/sarah-kay-chris-duffy-and-elna-baker'
p250
aS'http://www.thebostoncalendar.com/events/sarah-kay-chris-duffy-and-elna-baker'
p251
aS'http://www.thebostoncalendar.comhttp://www.thebostoncalendar.com/events/sarah-kay-chris-duffy-and-elna-baker'
p252
aS'http://www.thebostoncalendar.com/events/architecture-cruise--19'
p253
aS'http://www.thebostoncalendar.com/events/architecture-cruise--19'
p254
aS'http://www.thebostoncalendar.comhttp://www.thebostoncalendar.com/events/architecture-cruise--19'
p255
aS'http://www.thebostoncalendar.com/events/the-map-is-not-the-territory--5'
p256
aS'http://www.thebostoncalendar.com/events/the-map-is-not-the-territory--5'
p257
aS'http://www.thebostoncalendar.comhttp://www.thebostoncalendar.com/events/the-map-is-not-the-territory--5'
p258
aS'http://www.thebostoncalendar.com/events/trouble-with-jellyfish-exhibition-at-le-laboratoire-cambridge--3'
p259
aS'http://www.thebostoncalendar.com/events/trouble-with-jellyfish-exhibition-at-le-laboratoire-cambridge--3'
p260
aS'http://www.thebostoncalendar.comhttp://www.thebostoncalendar.com/events/trouble-with-jellyfish-exhibition-at-le-laboratoire-cambridge--3'
p261
aS'http://www.thebostoncalendar.com/events/test-ride-the-copenhagen-wheel--18'
p262
aS'http://www.thebostoncalendar.com/events/test-ride-the-copenhagen-wheel--18'
p263
aS'http://www.thebostoncalendar.comhttp://www.thebostoncalendar.com/events/test-ride-the-copenhagen-wheel--18'
p264
aS'http://www.thebostoncalendar.com/events/irish-music-the-druid-cambridge--65'
p265
aS'http://www.thebostoncalendar.com/events/irish-music-the-druid-cambridge--65'
p266
aS'http://www.thebostoncalendar.comhttp://www.thebostoncalendar.com/events/irish-music-the-druid-cambridge--65'
p267
aS'http://www.thebostoncalendar.com/events/boston-debut-cd-release-fretless-bros-jazz-rock'
p268
aS'http://www.thebostoncalendar.com/events/boston-debut-cd-release-fretless-bros-jazz-rock'
p269
aS'http://www.thebostoncalendar.comhttp://www.thebostoncalendar.com/events/boston-debut-cd-release-fretless-bros-jazz-rock'
p270
aS'http://www.thebostoncalendar.com/events/soulelujah--38'
p271
aS'http://www.thebostoncalendar.com/events/soulelujah--38'
p272
aS'http://www.thebostoncalendar.comhttp://www.thebostoncalendar.com/events/soulelujah--38'
p273
aS'http://www.thebostoncalendar.com/events/free-introductory-talk-on-transcendental-meditation-tm--57'
p274
aS'http://www.thebostoncalendar.com/events/free-introductory-talk-on-transcendental-meditation-tm--57'
p275
aS'http://www.thebostoncalendar.comhttp://www.thebostoncalendar.com/events/free-introductory-talk-on-transcendental-meditation-tm--57'
p276
aS'http://www.thebostoncalendar.com/events/science-and-cooking-2015-lecture-series--5'
p277
aS'http://www.thebostoncalendar.com/events/science-and-cooking-2015-lecture-series--5'
p278
aS'http://www.thebostoncalendar.comhttp://www.thebostoncalendar.com/events/science-and-cooking-2015-lecture-series--5'
p279
aS'http://www.thebostoncalendar.com/events/farmers-market-at-harvard--80'
p280
aS'http://www.thebostoncalendar.com/events/farmers-market-at-harvard--80'
p281
aS'http://www.thebostoncalendar.comhttp://www.thebostoncalendar.com/events/farmers-market-at-harvard--80'
p282
aS'http://www.thebostoncalendar.com/events/bluegrass-pickin-party-at-the-cantab--53'
p283
aS'http://www.thebostoncalendar.com/events/bluegrass-pickin-party-at-the-cantab--53'
p284
aS'http://www.thebostoncalendar.comhttp://www.thebostoncalendar.com/events/bluegrass-pickin-party-at-the-cantab--53'
p285
aS'http://www.thebostoncalendar.com/events/boston-couchsurfing-weekly-meet-up--262'
p286
aS'http://www.thebostoncalendar.com/events/boston-couchsurfing-weekly-meet-up--262'
p287
aS'http://www.thebostoncalendar.comhttp://www.thebostoncalendar.com/events/boston-couchsurfing-weekly-meet-up--262'
p288
aS'http://www.thebostoncalendar.com/events/architecture-cruise--20'
p289
aS'http://www.thebostoncalendar.com/events/architecture-cruise--20'
p290
aS'http://www.thebostoncalendar.comhttp://www.thebostoncalendar.com/events/architecture-cruise--20'
p291
aS'http://www.thebostoncalendar.com/events/the-map-is-not-the-territory--6'
p292
aS'http://www.thebostoncalendar.com/events/the-map-is-not-the-territory--6'
p293
aS'http://www.thebostoncalendar.comhttp://www.thebostoncalendar.com/events/the-map-is-not-the-territory--6'
p294
aS'http://www.thebostoncalendar.com/events/trouble-with-jellyfish-exhibition-at-le-laboratoire-cambridge--4'
p295
aS'http://www.thebostoncalendar.com/events/trouble-with-jellyfish-exhibition-at-le-laboratoire-cambridge--4'
p296
aS'http://www.thebostoncalendar.comhttp://www.thebostoncalendar.com/events/trouble-with-jellyfish-exhibition-at-le-laboratoire-cambridge--4'
p297
aS'http://www.thebostoncalendar.com/events/test-ride-the-copenhagen-wheel--19'
p298
aS'http://www.thebostoncalendar.com/events/test-ride-the-copenhagen-wheel--19'
p299
aS'http://www.thebostoncalendar.comhttp://www.thebostoncalendar.com/events/test-ride-the-copenhagen-wheel--19'
p300
aS'http://www.thebostoncalendar.com/events/beantown-throwdown'
p301
aS'http://www.thebostoncalendar.com/events/beantown-throwdown'
p302
aS'http://www.thebostoncalendar.comhttp://www.thebostoncalendar.com/events/beantown-throwdown'
p303
aS'http://www.thebostoncalendar.com/events/2015-mitef-cambridge-beantown-throwdown'
p304
aS'http://www.thebostoncalendar.comhttp://www.thebostoncalendar.com/events/2015-mitef-cambridge-beantown-throwdown'
p305
aS'http://www.thebostoncalendar.com/events/the-future-of-learning-laboratory'
p306
aS'http://www.thebostoncalendar.com/events/the-future-of-learning-laboratory'
p307
aS'http://www.thebostoncalendar.comhttp://www.thebostoncalendar.com/events/the-future-of-learning-laboratory'
p308
aS'http://www.thebostoncalendar.com/events/irish-music-the-druid-cambridge--66'
p309
aS'http://www.thebostoncalendar.com/events/irish-music-the-druid-cambridge--66'
p310
aS'http://www.thebostoncalendar.comhttp://www.thebostoncalendar.com/events/irish-music-the-druid-cambridge--66'
p311
aS'http://www.thebostoncalendar.com/events/soulelujah--39'
p312
aS'http://www.thebostoncalendar.com/events/soulelujah--39'
p313
aS'http://www.thebostoncalendar.comhttp://www.thebostoncalendar.com/events/soulelujah--39'
p314
aS'http://www.thebostoncalendar.com/events/free-introductory-talk-on-transcendental-meditation-tm--58'
p315
aS'http://www.thebostoncalendar.com/events/free-introductory-talk-on-transcendental-meditation-tm--58'
p316
aS'http://www.thebostoncalendar.comhttp://www.thebostoncalendar.com/events/free-introductory-talk-on-transcendental-meditation-tm--58'
p317
aS'http://www.thebostoncalendar.com/events/science-and-cooking-2015-lecture-series--6'
p318
aS'http://www.thebostoncalendar.com/events/science-and-cooking-2015-lecture-series--6'
p319
aS'http://www.thebostoncalendar.comhttp://www.thebostoncalendar.com/events/science-and-cooking-2015-lecture-series--6'
p320
aS'http://www.thebostoncalendar.com/events/farmers-market-at-harvard--81'
p321
aS'http://www.thebostoncalendar.com/events/farmers-market-at-harvard--81'
p322
aS'http://www.thebostoncalendar.comhttp://www.thebostoncalendar.com/events/farmers-market-at-harvard--81'
p323
aS'http://www.thebostoncalendar.com/events/bluegrass-pickin-party-at-the-cantab--54'
p324
aS'http://www.thebostoncalendar.com/events/bluegrass-pickin-party-at-the-cantab--54'
p325
aS'http://www.thebostoncalendar.comhttp://www.thebostoncalendar.com/events/bluegrass-pickin-party-at-the-cantab--54'
p326
aS'http://www.thebostoncalendar.com/events/boston-couchsurfing-weekly-meet-up--263'
p327
aS'http://www.thebostoncalendar.com/events/boston-couchsurfing-weekly-meet-up--263'
p328
aS'http://www.thebostoncalendar.comhttp://www.thebostoncalendar.com/events/boston-couchsurfing-weekly-meet-up--263'
p329
aS'http://www.thebostoncalendar.com/events/5th-annual-arlington-international-film-festival'
p330
aS'http://www.thebostoncalendar.com/events/5th-annual-arlington-international-film-festival'
p331
aS'http://www.thebostoncalendar.comhttp://www.thebostoncalendar.com/events/5th-annual-arlington-international-film-festival'
p332
aS'http://www.thebostoncalendar.com/events/5th-annual-arlington-international-film-festival--2'
p333
aS'http://www.thebostoncalendar.com/events/5th-annual-arlington-international-film-festival--2'
p334
aS'http://www.thebostoncalendar.comhttp://www.thebostoncalendar.com/events/5th-annual-arlington-international-film-festival--2'
p335
aS'http://www.thebostoncalendar.com/events/the-map-is-not-the-territory--7'
p336
aS'http://www.thebostoncalendar.com/events/the-map-is-not-the-territory--7'
p337
aS'http://www.thebostoncalendar.comhttp://www.thebostoncalendar.com/events/the-map-is-not-the-territory--7'
p338
aS'http://www.thebostoncalendar.com/events/trouble-with-jellyfish-exhibition-at-le-laboratoire-cambridge--5'
p339
aS'http://www.thebostoncalendar.com/events/trouble-with-jellyfish-exhibition-at-le-laboratoire-cambridge--5'
p340
aS'http://www.thebostoncalendar.comhttp://www.thebostoncalendar.com/events/trouble-with-jellyfish-exhibition-at-le-laboratoire-cambridge--5'
p341
aS'http://www.thebostoncalendar.com/events/test-ride-the-copenhagen-wheel--20'
p342
aS'http://www.thebostoncalendar.com/events/test-ride-the-copenhagen-wheel--20'
p343
aS'http://www.thebostoncalendar.comhttp://www.thebostoncalendar.com/events/test-ride-the-copenhagen-wheel--20'
p344
aS'http://www.thebostoncalendar.com/events/the-femme-show-9-lives'
p345
aS'http://www.thebostoncalendar.com/events/the-femme-show-9-lives'
p346
aS'http://www.thebostoncalendar.comhttp://www.thebostoncalendar.com/events/the-femme-show-9-lives'
p347
aS'http://www.thebostoncalendar.com/events/irish-music-the-druid-cambridge--67'
p348
aS'http://www.thebostoncalendar.com/events/irish-music-the-druid-cambridge--67'
p349
aS'http://www.thebostoncalendar.comhttp://www.thebostoncalendar.com/events/irish-music-the-druid-cambridge--67'
p350
aS'http://www.thebostoncalendar.com/events/free-introductory-talk-on-transcendental-meditation-tm--59'
p351
aS'http://www.thebostoncalendar.com/events/free-introductory-talk-on-transcendental-meditation-tm--59'
p352
aS'http://www.thebostoncalendar.comhttp://www.thebostoncalendar.com/events/free-introductory-talk-on-transcendental-meditation-tm--59'
p353
aS'http://www.thebostoncalendar.com/events/science-and-cooking-2015-lecture-series--7'
p354
aS'http://www.thebostoncalendar.com/events/science-and-cooking-2015-lecture-series--7'
p355
aS'http://www.thebostoncalendar.comhttp://www.thebostoncalendar.com/events/science-and-cooking-2015-lecture-series--7'
p356
aS'http://www.thebostoncalendar.com/events/farmers-market-at-harvard--82'
p357
aS'http://www.thebostoncalendar.com/events/farmers-market-at-harvard--82'
p358
aS'http://www.thebostoncalendar.comhttp://www.thebostoncalendar.com/events/farmers-market-at-harvard--82'
p359
aS'http://www.thebostoncalendar.com/events/free-introductory-talk-on-transcendental-meditation-tm--71'
p360
aS'http://www.thebostoncalendar.com/events/free-introductory-talk-on-transcendental-meditation-tm--71'
p361
aS'http://www.thebostoncalendar.comhttp://www.thebostoncalendar.com/events/free-introductory-talk-on-transcendental-meditation-tm--71'
p362
aS'http://www.thebostoncalendar.com/events/bluegrass-pickin-party-at-the-cantab--55'
p363
aS'http://www.thebostoncalendar.com/events/bluegrass-pickin-party-at-the-cantab--55'
p364
aS'http://www.thebostoncalendar.comhttp://www.thebostoncalendar.com/events/bluegrass-pickin-party-at-the-cantab--55'
p365
aS'http://www.thebostoncalendar.com/events/boston-couchsurfing-weekly-meet-up--264'
p366
aS'http://www.thebostoncalendar.com/events/boston-couchsurfing-weekly-meet-up--264'
p367
aS'http://www.thebostoncalendar.comhttp://www.thebostoncalendar.com/events/boston-couchsurfing-weekly-meet-up--264'
p368
aS'http://www.thebostoncalendar.com/events/intro-to-zen-meditation-at-cambridge-zen-center--95'
p369
aS'http://www.thebostoncalendar.com/events/intro-to-zen-meditation-at-cambridge-zen-center--95'
p370
aS'http://www.thebostoncalendar.comhttp://www.thebostoncalendar.com/events/intro-to-zen-meditation-at-cambridge-zen-center--95'
p371
aS'http://www.thebostoncalendar.com/events/the-map-is-not-the-territory--8'
p372
aS'http://www.thebostoncalendar.com/events/the-map-is-not-the-territory--8'
p373
aS'http://www.thebostoncalendar.comhttp://www.thebostoncalendar.com/events/the-map-is-not-the-territory--8'
p374
aS'http://www.thebostoncalendar.com/events/test-ride-the-copenhagen-wheel--21'
p375
aS'http://www.thebostoncalendar.com/events/test-ride-the-copenhagen-wheel--21'
p376
aS'http://www.thebostoncalendar.comhttp://www.thebostoncalendar.com/events/test-ride-the-copenhagen-wheel--21'
p377
aS'http://www.thebostoncalendar.com/events/irish-music-the-druid-cambridge--68'
p378
aS'http://www.thebostoncalendar.com/events/irish-music-the-druid-cambridge--68'
p379
aS'http://www.thebostoncalendar.comhttp://www.thebostoncalendar.com/events/irish-music-the-druid-cambridge--68'
p380
aS'http://www.thebostoncalendar.com/events/soulelujah--40'
p381
aS'http://www.thebostoncalendar.com/events/soulelujah--40'
p382
aS'http://www.thebostoncalendar.comhttp://www.thebostoncalendar.com/events/soulelujah--40'
p383
aS'http://www.thebostoncalendar.com/events/free-introductory-talk-on-transcendental-meditation-tm--60'
p384
aS'http://www.thebostoncalendar.com/events/free-introductory-talk-on-transcendental-meditation-tm--60'
p385
aS'http://www.thebostoncalendar.comhttp://www.thebostoncalendar.com/events/free-introductory-talk-on-transcendental-meditation-tm--60'
p386
aS'http://www.thebostoncalendar.com/events/science-and-cooking-2015-lecture-series--8'
p387
aS'http://www.thebostoncalendar.com/events/science-and-cooking-2015-lecture-series--8'
p388
aS'http://www.thebostoncalendar.comhttp://www.thebostoncalendar.com/events/science-and-cooking-2015-lecture-series--8'
p389
aS'http://www.thebostoncalendar.com/events/farmers-market-at-harvard--83'
p390
aS'http://www.thebostoncalendar.com/events/farmers-market-at-harvard--83'
p391
aS'http://www.thebostoncalendar.comhttp://www.thebostoncalendar.com/events/farmers-market-at-harvard--83'
p392
aS'http://www.thebostoncalendar.com/events/free-introductory-talk-on-transcendental-meditation-tm--72'
p393
aS'http://www.thebostoncalendar.com/events/free-introductory-talk-on-transcendental-meditation-tm--72'
p394
aS'http://www.thebostoncalendar.comhttp://www.thebostoncalendar.com/events/free-introductory-talk-on-transcendental-meditation-tm--72'
p395
aS'http://www.thebostoncalendar.com/events/bluegrass-pickin-party-at-the-cantab--56'
p396
aS'http://www.thebostoncalendar.com/events/bluegrass-pickin-party-at-the-cantab--56'
p397
aS'http://www.thebostoncalendar.comhttp://www.thebostoncalendar.com/events/bluegrass-pickin-party-at-the-cantab--56'
p398
aS'http://www.thebostoncalendar.com/events/boston-couchsurfing-weekly-meet-up--265'
p399
aS'http://www.thebostoncalendar.com/events/boston-couchsurfing-weekly-meet-up--265'
p400
aS'http://www.thebostoncalendar.comhttp://www.thebostoncalendar.com/events/boston-couchsurfing-weekly-meet-up--265'
p401
aS'http://www.thebostoncalendar.com/events/intro-to-zen-meditation-at-cambridge-zen-center--96'
p402
aS'http://www.thebostoncalendar.com/events/intro-to-zen-meditation-at-cambridge-zen-center--96'
p403
aS'http://www.thebostoncalendar.comhttp://www.thebostoncalendar.com/events/intro-to-zen-meditation-at-cambridge-zen-center--96'
p404
aS'http://www.thebostoncalendar.com/events/the-map-is-not-the-territory--9'
p405
aS'http://www.thebostoncalendar.com/events/the-map-is-not-the-territory--9'
p406
aS'http://www.thebostoncalendar.comhttp://www.thebostoncalendar.com/events/the-map-is-not-the-territory--9'
p407
aS'http://www.thebostoncalendar.com/events/test-ride-the-copenhagen-wheel--22'
p408
aS'http://www.thebostoncalendar.com/events/test-ride-the-copenhagen-wheel--22'
p409
aS'http://www.thebostoncalendar.comhttp://www.thebostoncalendar.com/events/test-ride-the-copenhagen-wheel--22'
p410
aS'http://www.thebostoncalendar.com/events/irish-music-the-druid-cambridge--69'
p411
aS'http://www.thebostoncalendar.com/events/irish-music-the-druid-cambridge--69'
p412
aS'http://www.thebostoncalendar.comhttp://www.thebostoncalendar.com/events/irish-music-the-druid-cambridge--69'
p413
aS'http://www.thebostoncalendar.com/events/soulelujah--41'
p414
aS'http://www.thebostoncalendar.com/events/soulelujah--41'
p415
aS'http://www.thebostoncalendar.comhttp://www.thebostoncalendar.com/events/soulelujah--41'
p416
aS'http://www.thebostoncalendar.com/events/free-introductory-talk-on-transcendental-meditation-tm--61'
p417
aS'http://www.thebostoncalendar.com/events/free-introductory-talk-on-transcendental-meditation-tm--61'
p418
aS'http://www.thebostoncalendar.comhttp://www.thebostoncalendar.com/events/free-introductory-talk-on-transcendental-meditation-tm--61'
p419
aS'http://www.thebostoncalendar.com/events/science-and-cooking-2015-lecture-series--9'
p420
aS'http://www.thebostoncalendar.com/events/science-and-cooking-2015-lecture-series--9'
p421
aS'http://www.thebostoncalendar.comhttp://www.thebostoncalendar.com/events/science-and-cooking-2015-lecture-series--9'
p422
aS'http://www.thebostoncalendar.com/events/farmers-market-at-harvard--84'
p423
aS'http://www.thebostoncalendar.com/events/farmers-market-at-harvard--84'
p424
aS'http://www.thebostoncalendar.comhttp://www.thebostoncalendar.com/events/farmers-market-at-harvard--84'
p425
aS'http://www.thebostoncalendar.com/events/free-introductory-talk-on-transcendental-meditation-tm--73'
p426
aS'http://www.thebostoncalendar.com/events/free-introductory-talk-on-transcendental-meditation-tm--73'
p427
aS'http://www.thebostoncalendar.comhttp://www.thebostoncalendar.com/events/free-introductory-talk-on-transcendental-meditation-tm--73'
p428
aS'http://www.thebostoncalendar.com/events/bluegrass-pickin-party-at-the-cantab--57'
p429
aS'http://www.thebostoncalendar.com/events/bluegrass-pickin-party-at-the-cantab--57'
p430
aS'http://www.thebostoncalendar.comhttp://www.thebostoncalendar.com/events/bluegrass-pickin-party-at-the-cantab--57'
p431
aS'http://www.thebostoncalendar.com/events/boston-couchsurfing-weekly-meet-up--266'
p432
aS'http://www.thebostoncalendar.com/events/boston-couchsurfing-weekly-meet-up--266'
p433
aS'http://www.thebostoncalendar.comhttp://www.thebostoncalendar.com/events/boston-couchsurfing-weekly-meet-up--266'
p434
aS'http://www.thebostoncalendar.com/events/mixed-media-exploration'
p435
aS'http://www.thebostoncalendar.com/events/mixed-media-exploration'
p436
aS'http://www.thebostoncalendar.comhttp://www.thebostoncalendar.com/events/mixed-media-exploration'
p437
aS'http://www.thebostoncalendar.com/events/intro-to-zen-meditation-at-cambridge-zen-center--97'
p438
aS'http://www.thebostoncalendar.com/events/intro-to-zen-meditation-at-cambridge-zen-center--97'
p439
aS'http://www.thebostoncalendar.comhttp://www.thebostoncalendar.com/events/intro-to-zen-meditation-at-cambridge-zen-center--97'
p440
aS'http://www.thebostoncalendar.com/events/test-ride-the-copenhagen-wheel--23'
p441
aS'http://www.thebostoncalendar.com/events/test-ride-the-copenhagen-wheel--23'
p442
aS'http://www.thebostoncalendar.comhttp://www.thebostoncalendar.com/events/test-ride-the-copenhagen-wheel--23'
p443
aS'http://www.thebostoncalendar.com/events/irish-music-the-druid-cambridge--70'
p444
aS'http://www.thebostoncalendar.com/events/irish-music-the-druid-cambridge--70'
p445
aS'http://www.thebostoncalendar.comhttp://www.thebostoncalendar.com/events/irish-music-the-druid-cambridge--70'
p446
aS'http://www.thebostoncalendar.com/events/soulelujah--42'
p447
aS'http://www.thebostoncalendar.com/events/soulelujah--42'
p448
aS'http://www.thebostoncalendar.comhttp://www.thebostoncalendar.com/events/soulelujah--42'
p449
aS'http://www.thebostoncalendar.com/events/free-introductory-talk-on-transcendental-meditation-tm--62'
p450
aS'http://www.thebostoncalendar.com/events/free-introductory-talk-on-transcendental-meditation-tm--62'
p451
aS'http://www.thebostoncalendar.comhttp://www.thebostoncalendar.com/events/free-introductory-talk-on-transcendental-meditation-tm--62'
p452
aS'http://www.thebostoncalendar.com/events/science-and-cooking-2015-lecture-series--10'
p453
aS'http://www.thebostoncalendar.com/events/science-and-cooking-2015-lecture-series--10'
p454
aS'http://www.thebostoncalendar.comhttp://www.thebostoncalendar.com/events/science-and-cooking-2015-lecture-series--10'
p455
aS'http://www.thebostoncalendar.com/events/farmers-market-at-harvard--85'
p456
aS'http://www.thebostoncalendar.com/events/farmers-market-at-harvard--85'
p457
aS'http://www.thebostoncalendar.comhttp://www.thebostoncalendar.com/events/farmers-market-at-harvard--85'
p458
aS'http://www.thebostoncalendar.com/events/free-introductory-talk-on-transcendental-meditation-tm--74'
p459
aS'http://www.thebostoncalendar.com/events/free-introductory-talk-on-transcendental-meditation-tm--74'
p460
aS'http://www.thebostoncalendar.comhttp://www.thebostoncalendar.com/events/free-introductory-talk-on-transcendental-meditation-tm--74'
p461
aS'http://www.thebostoncalendar.com/events/bluegrass-pickin-party-at-the-cantab--58'
p462
aS'http://www.thebostoncalendar.com/events/bluegrass-pickin-party-at-the-cantab--58'
p463
aS'http://www.thebostoncalendar.comhttp://www.thebostoncalendar.com/events/bluegrass-pickin-party-at-the-cantab--58'
p464
aS'http://www.thebostoncalendar.com/events/boston-couchsurfing-weekly-meet-up--267'
p465
aS'http://www.thebostoncalendar.com/events/boston-couchsurfing-weekly-meet-up--267'
p466
aS'http://www.thebostoncalendar.comhttp://www.thebostoncalendar.com/events/boston-couchsurfing-weekly-meet-up--267'
p467
aS'http://www.thebostoncalendar.com/events/intro-to-zen-meditation-at-cambridge-zen-center--98'
p468
aS'http://www.thebostoncalendar.com/events/intro-to-zen-meditation-at-cambridge-zen-center--98'
p469
aS'http://www.thebostoncalendar.comhttp://www.thebostoncalendar.com/events/intro-to-zen-meditation-at-cambridge-zen-center--98'
p470
aS'http://www.thebostoncalendar.com/events/test-ride-the-copenhagen-wheel--24'
p471
aS'http://www.thebostoncalendar.com/events/test-ride-the-copenhagen-wheel--24'
p472
aS'http://www.thebostoncalendar.comhttp://www.thebostoncalendar.com/events/test-ride-the-copenhagen-wheel--24'
p473
aS'http://www.thebostoncalendar.com/events/irish-music-the-druid-cambridge--71'
p474
aS'http://www.thebostoncalendar.com/events/irish-music-the-druid-cambridge--71'
p475
aS'http://www.thebostoncalendar.comhttp://www.thebostoncalendar.com/events/irish-music-the-druid-cambridge--71'
p476
aS'http://www.thebostoncalendar.com/events/soulelujah--43'
p477
aS'http://www.thebostoncalendar.com/events/soulelujah--43'
p478
aS'http://www.thebostoncalendar.comhttp://www.thebostoncalendar.com/events/soulelujah--43'
p479
aS'http://www.thebostoncalendar.com/events/free-introductory-talk-on-transcendental-meditation-tm--63'
p480
aS'http://www.thebostoncalendar.com/events/free-introductory-talk-on-transcendental-meditation-tm--63'
p481
aS'http://www.thebostoncalendar.comhttp://www.thebostoncalendar.com/events/free-introductory-talk-on-transcendental-meditation-tm--63'
p482
aS'http://www.thebostoncalendar.com/events/science-and-cooking-2015-lecture-series--11'
p483
aS'http://www.thebostoncalendar.com/events/science-and-cooking-2015-lecture-series--11'
p484
aS'http://www.thebostoncalendar.comhttp://www.thebostoncalendar.com/events/science-and-cooking-2015-lecture-series--11'
p485
aS'http://www.thebostoncalendar.com/events/farmers-market-at-harvard--86'
p486
aS'http://www.thebostoncalendar.com/events/farmers-market-at-harvard--86'
p487
aS'http://www.thebostoncalendar.comhttp://www.thebostoncalendar.com/events/farmers-market-at-harvard--86'
p488
aS'http://www.thebostoncalendar.com/events/free-introductory-talk-on-transcendental-meditation-tm--75'
p489
aS'http://www.thebostoncalendar.com/events/free-introductory-talk-on-transcendental-meditation-tm--75'
p490
aS'http://www.thebostoncalendar.comhttp://www.thebostoncalendar.com/events/free-introductory-talk-on-transcendental-meditation-tm--75'
p491
aS'http://www.thebostoncalendar.com/events/bluegrass-pickin-party-at-the-cantab--59'
p492
aS'http://www.thebostoncalendar.com/events/bluegrass-pickin-party-at-the-cantab--59'
p493
aS'http://www.thebostoncalendar.comhttp://www.thebostoncalendar.com/events/bluegrass-pickin-party-at-the-cantab--59'
p494
aS'http://www.thebostoncalendar.com/events/boston-couchsurfing-weekly-meet-up--268'
p495
aS'http://www.thebostoncalendar.com/events/boston-couchsurfing-weekly-meet-up--268'
p496
aS'http://www.thebostoncalendar.comhttp://www.thebostoncalendar.com/events/boston-couchsurfing-weekly-meet-up--268'
p497
aS'http://www.thebostoncalendar.com/events/intro-to-zen-meditation-at-cambridge-zen-center--99'
p498
aS'http://www.thebostoncalendar.com/events/intro-to-zen-meditation-at-cambridge-zen-center--99'
p499
aS'http://www.thebostoncalendar.comhttp://www.thebostoncalendar.com/events/intro-to-zen-meditation-at-cambridge-zen-center--99'
p500
aS'http://www.thebostoncalendar.com/events/test-ride-the-copenhagen-wheel--25'
p501
aS'http://www.thebostoncalendar.com/events/test-ride-the-copenhagen-wheel--25'
p502
aS'http://www.thebostoncalendar.comhttp://www.thebostoncalendar.com/events/test-ride-the-copenhagen-wheel--25'
p503
aS'http://www.thebostoncalendar.com/events/irish-music-the-druid-cambridge--72'
p504
aS'http://www.thebostoncalendar.com/events/irish-music-the-druid-cambridge--72'
p505
aS'http://www.thebostoncalendar.comhttp://www.thebostoncalendar.com/events/irish-music-the-druid-cambridge--72'
p506
aS'http://www.thebostoncalendar.com/events/soulelujah--44'
p507
aS'http://www.thebostoncalendar.com/events/soulelujah--44'
p508
aS'http://www.thebostoncalendar.comhttp://www.thebostoncalendar.com/events/soulelujah--44'
p509
aS'http://www.thebostoncalendar.com/events/free-introductory-talk-on-transcendental-meditation-tm--64'
p510
aS'http://www.thebostoncalendar.com/events/free-introductory-talk-on-transcendental-meditation-tm--64'
p511
aS'http://www.thebostoncalendar.comhttp://www.thebostoncalendar.com/events/free-introductory-talk-on-transcendental-meditation-tm--64'
p512
aS'http://www.thebostoncalendar.com/events/science-and-cooking-2015-lecture-series--12'
p513
aS'http://www.thebostoncalendar.com/events/science-and-cooking-2015-lecture-series--12'
p514
aS'http://www.thebostoncalendar.comhttp://www.thebostoncalendar.com/events/science-and-cooking-2015-lecture-series--12'
p515
aS'http://www.thebostoncalendar.com/events/farmers-market-at-harvard--87'
p516
aS'http://www.thebostoncalendar.com/events/farmers-market-at-harvard--87'
p517
aS'http://www.thebostoncalendar.comhttp://www.thebostoncalendar.com/events/farmers-market-at-harvard--87'
p518
aS'http://www.thebostoncalendar.com/events/free-introductory-talk-on-transcendental-meditation-tm--76'
p519
aS'http://www.thebostoncalendar.com/events/free-introductory-talk-on-transcendental-meditation-tm--76'
p520
aS'http://www.thebostoncalendar.comhttp://www.thebostoncalendar.com/events/free-introductory-talk-on-transcendental-meditation-tm--76'
p521
aS'http://www.thebostoncalendar.com/events/bluegrass-pickin-party-at-the-cantab--60'
p522
aS'http://www.thebostoncalendar.com/events/bluegrass-pickin-party-at-the-cantab--60'
p523
aS'http://www.thebostoncalendar.comhttp://www.thebostoncalendar.com/events/bluegrass-pickin-party-at-the-cantab--60'
p524
aS'http://www.thebostoncalendar.com/events/boston-couchsurfing-weekly-meet-up--269'
p525
aS'http://www.thebostoncalendar.com/events/boston-couchsurfing-weekly-meet-up--269'
p526
aS'http://www.thebostoncalendar.comhttp://www.thebostoncalendar.com/events/boston-couchsurfing-weekly-meet-up--269'
p527
aS'http://www.thebostoncalendar.com/events/intro-to-zen-meditation-at-cambridge-zen-center--100'
p528
aS'http://www.thebostoncalendar.com/events/intro-to-zen-meditation-at-cambridge-zen-center--100'
p529
aS'http://www.thebostoncalendar.comhttp://www.thebostoncalendar.com/events/intro-to-zen-meditation-at-cambridge-zen-center--100'
p530
aS'http://www.thebostoncalendar.com/events/trouble-with-jellyfish-exhibition-at-le-laboratoire-cambridge--6'
p531
aS'http://www.thebostoncalendar.com/events/trouble-with-jellyfish-exhibition-at-le-laboratoire-cambridge--6'
p532
aS'http://www.thebostoncalendar.comhttp://www.thebostoncalendar.com/events/trouble-with-jellyfish-exhibition-at-le-laboratoire-cambridge--6'
p533
aS'http://www.thebostoncalendar.com/events/test-ride-the-copenhagen-wheel--26'
p534
aS'http://www.thebostoncalendar.com/events/test-ride-the-copenhagen-wheel--26'
p535
aS'http://www.thebostoncalendar.comhttp://www.thebostoncalendar.com/events/test-ride-the-copenhagen-wheel--26'
p536
aS'http://www.thebostoncalendar.com/events/irish-music-the-druid-cambridge--73'
p537
aS'http://www.thebostoncalendar.com/events/irish-music-the-druid-cambridge--73'
p538
aS'http://www.thebostoncalendar.comhttp://www.thebostoncalendar.com/events/irish-music-the-druid-cambridge--73'
p539
aS'http://www.thebostoncalendar.com/events/free-introductory-talk-on-transcendental-meditation-tm--65'
p540
aS'http://www.thebostoncalendar.com/events/free-introductory-talk-on-transcendental-meditation-tm--65'
p541
aS'http://www.thebostoncalendar.comhttp://www.thebostoncalendar.com/events/free-introductory-talk-on-transcendental-meditation-tm--65'
p542
aS'http://www.thebostoncalendar.com/events/science-and-cooking-2015-lecture-series--13'
p543
aS'http://www.thebostoncalendar.com/events/science-and-cooking-2015-lecture-series--13'
p544
aS'http://www.thebostoncalendar.comhttp://www.thebostoncalendar.com/events/science-and-cooking-2015-lecture-series--13'
p545
aS'http://www.thebostoncalendar.com/events/free-introductory-talk-on-transcendental-meditation-tm--77'
p546
aS'http://www.thebostoncalendar.com/events/free-introductory-talk-on-transcendental-meditation-tm--77'
p547
aS'http://www.thebostoncalendar.comhttp://www.thebostoncalendar.com/events/free-introductory-talk-on-transcendental-meditation-tm--77'
p548
aS'http://www.thebostoncalendar.com/events/bluegrass-pickin-party-at-the-cantab--61'
p549
aS'http://www.thebostoncalendar.com/events/bluegrass-pickin-party-at-the-cantab--61'
p550
aS'http://www.thebostoncalendar.comhttp://www.thebostoncalendar.com/events/bluegrass-pickin-party-at-the-cantab--61'
p551
aS'http://www.thebostoncalendar.com/events/boston-couchsurfing-weekly-meet-up--270'
p552
aS'http://www.thebostoncalendar.com/events/boston-couchsurfing-weekly-meet-up--270'
p553
aS'http://www.thebostoncalendar.comhttp://www.thebostoncalendar.com/events/boston-couchsurfing-weekly-meet-up--270'
p554
aS'http://www.thebostoncalendar.com/events/intro-to-zen-meditation-at-cambridge-zen-center--101'
p555
aS'http://www.thebostoncalendar.com/events/intro-to-zen-meditation-at-cambridge-zen-center--101'
p556
aS'http://www.thebostoncalendar.comhttp://www.thebostoncalendar.com/events/intro-to-zen-meditation-at-cambridge-zen-center--101'
p557
aS'http://www.thebostoncalendar.com/events/trouble-with-jellyfish-exhibition-at-le-laboratoire-cambridge--7'
p558
aS'http://www.thebostoncalendar.com/events/trouble-with-jellyfish-exhibition-at-le-laboratoire-cambridge--7'
p559
aS'http://www.thebostoncalendar.comhttp://www.thebostoncalendar.com/events/trouble-with-jellyfish-exhibition-at-le-laboratoire-cambridge--7'
p560
aS'http://www.thebostoncalendar.com/events/test-ride-the-copenhagen-wheel--27'
p561
aS'http://www.thebostoncalendar.com/events/test-ride-the-copenhagen-wheel--27'
p562
aS'http://www.thebostoncalendar.comhttp://www.thebostoncalendar.com/events/test-ride-the-copenhagen-wheel--27'
p563
aS'http://www.thebostoncalendar.com/events/irish-music-the-druid-cambridge--74'
p564
aS'http://www.thebostoncalendar.com/events/irish-music-the-druid-cambridge--74'
p565
aS'http://www.thebostoncalendar.comhttp://www.thebostoncalendar.com/events/irish-music-the-druid-cambridge--74'
p566
aS'http://www.thebostoncalendar.com/events/free-introductory-talk-on-transcendental-meditation-tm--66'
p567
aS'http://www.thebostoncalendar.com/events/free-introductory-talk-on-transcendental-meditation-tm--66'
p568
aS'http://www.thebostoncalendar.comhttp://www.thebostoncalendar.com/events/free-introductory-talk-on-transcendental-meditation-tm--66'
p569
aS'http://www.thebostoncalendar.com/events/science-and-cooking-2015-lecture-series--14'
p570
aS'http://www.thebostoncalendar.com/events/science-and-cooking-2015-lecture-series--14'
p571
aS'http://www.thebostoncalendar.comhttp://www.thebostoncalendar.com/events/science-and-cooking-2015-lecture-series--14'
p572
aS'http://www.thebostoncalendar.com/events/bluegrass-pickin-party-at-the-cantab--62'
p573
aS'http://www.thebostoncalendar.com/events/bluegrass-pickin-party-at-the-cantab--62'
p574
aS'http://www.thebostoncalendar.comhttp://www.thebostoncalendar.com/events/bluegrass-pickin-party-at-the-cantab--62'
p575
aS'http://www.thebostoncalendar.com/events/boston-couchsurfing-weekly-meet-up--271'
p576
aS'http://www.thebostoncalendar.com/events/boston-couchsurfing-weekly-meet-up--271'
p577
aS'http://www.thebostoncalendar.comhttp://www.thebostoncalendar.com/events/boston-couchsurfing-weekly-meet-up--271'
p578
aS'http://www.thebostoncalendar.com/events/intro-to-zen-meditation-at-cambridge-zen-center--102'
p579
aS'http://www.thebostoncalendar.com/events/intro-to-zen-meditation-at-cambridge-zen-center--102'
p580
aS'http://www.thebostoncalendar.comhttp://www.thebostoncalendar.com/events/intro-to-zen-meditation-at-cambridge-zen-center--102'
p581
aS'http://www.thebostoncalendar.com/events/trouble-with-jellyfish-exhibition-at-le-laboratoire-cambridge--8'
p582
aS'http://www.thebostoncalendar.com/events/trouble-with-jellyfish-exhibition-at-le-laboratoire-cambridge--8'
p583
aS'http://www.thebostoncalendar.comhttp://www.thebostoncalendar.com/events/trouble-with-jellyfish-exhibition-at-le-laboratoire-cambridge--8'
p584
aS'http://www.thebostoncalendar.com/events/test-ride-the-copenhagen-wheel--28'
p585
aS'http://www.thebostoncalendar.com/events/test-ride-the-copenhagen-wheel--28'
p586
aS'http://www.thebostoncalendar.comhttp://www.thebostoncalendar.com/events/test-ride-the-copenhagen-wheel--28'
p587
aS'http://www.thebostoncalendar.com/events/irish-music-the-druid-cambridge--75'
p588
aS'http://www.thebostoncalendar.com/events/irish-music-the-druid-cambridge--75'
p589
aS'http://www.thebostoncalendar.comhttp://www.thebostoncalendar.com/events/irish-music-the-druid-cambridge--75'
p590
aS'http://www.thebostoncalendar.com/events/free-introductory-talk-on-transcendental-meditation-tm--67'
p591
aS'http://www.thebostoncalendar.com/events/free-introductory-talk-on-transcendental-meditation-tm--67'
p592
aS'http://www.thebostoncalendar.comhttp://www.thebostoncalendar.com/events/free-introductory-talk-on-transcendental-meditation-tm--67'
p593
aS'http://www.thebostoncalendar.com/events/bluegrass-pickin-party-at-the-cantab--63'
p594
aS'http://www.thebostoncalendar.com/events/bluegrass-pickin-party-at-the-cantab--63'
p595
aS'http://www.thebostoncalendar.comhttp://www.thebostoncalendar.com/events/bluegrass-pickin-party-at-the-cantab--63'
p596
aS'http://www.thebostoncalendar.com/events/boston-couchsurfing-weekly-meet-up--272'
p597
aS'http://www.thebostoncalendar.com/events/boston-couchsurfing-weekly-meet-up--272'
p598
aS'http://www.thebostoncalendar.comhttp://www.thebostoncalendar.com/events/boston-couchsurfing-weekly-meet-up--272'
p599
aS'http://www.thebostoncalendar.com/events/trouble-with-jellyfish-exhibition-at-le-laboratoire-cambridge--9'
p600
aS'http://www.thebostoncalendar.com/events/trouble-with-jellyfish-exhibition-at-le-laboratoire-cambridge--9'
p601
aS'http://www.thebostoncalendar.comhttp://www.thebostoncalendar.com/events/trouble-with-jellyfish-exhibition-at-le-laboratoire-cambridge--9'
p602
aS'http://www.thebostoncalendar.com/events/test-ride-the-copenhagen-wheel--29'
p603
aS'http://www.thebostoncalendar.com/events/test-ride-the-copenhagen-wheel--29'
p604
aS'http://www.thebostoncalendar.comhttp://www.thebostoncalendar.com/events/test-ride-the-copenhagen-wheel--29'
p605
aS'http://www.thebostoncalendar.com/events/irish-music-the-druid-cambridge--76'
p606
aS'http://www.thebostoncalendar.com/events/irish-music-the-druid-cambridge--76'
p607
aS'http://www.thebostoncalendar.comhttp://www.thebostoncalendar.com/events/irish-music-the-druid-cambridge--76'
p608
aS'http://www.thebostoncalendar.com/events/soulelujah--45'
p609
aS'http://www.thebostoncalendar.com/events/soulelujah--45'
p610
aS'http://www.thebostoncalendar.comhttp://www.thebostoncalendar.com/events/soulelujah--45'
p611
aS'http://www.thebostoncalendar.com/events/free-introductory-talk-on-transcendental-meditation-tm--68'
p612
aS'http://www.thebostoncalendar.com/events/free-introductory-talk-on-transcendental-meditation-tm--68'
p613
aS'http://www.thebostoncalendar.comhttp://www.thebostoncalendar.com/events/free-introductory-talk-on-transcendental-meditation-tm--68'
p614
aS'http://www.thebostoncalendar.com/events/bluegrass-pickin-party-at-the-cantab--64'
p615
aS'http://www.thebostoncalendar.com/events/bluegrass-pickin-party-at-the-cantab--64'
p616
aS'http://www.thebostoncalendar.comhttp://www.thebostoncalendar.com/events/bluegrass-pickin-party-at-the-cantab--64'
p617
aS'http://www.thebostoncalendar.com/events/boston-couchsurfing-weekly-meet-up--273'
p618
aS'http://www.thebostoncalendar.com/events/boston-couchsurfing-weekly-meet-up--273'
p619
aS'http://www.thebostoncalendar.comhttp://www.thebostoncalendar.com/events/boston-couchsurfing-weekly-meet-up--273'
p620
aS'http://www.thebostoncalendar.com/events/intro-to-zen-meditation-at-cambridge-zen-center--103'
p621
aS'http://www.thebostoncalendar.com/events/intro-to-zen-meditation-at-cambridge-zen-center--103'
p622
aS'http://www.thebostoncalendar.comhttp://www.thebostoncalendar.com/events/intro-to-zen-meditation-at-cambridge-zen-center--103'
p623
aS'http://www.thebostoncalendar.com/events/trouble-with-jellyfish-exhibition-at-le-laboratoire-cambridge--10'
p624
aS'http://www.thebostoncalendar.com/events/trouble-with-jellyfish-exhibition-at-le-laboratoire-cambridge--10'
p625
aS'http://www.thebostoncalendar.comhttp://www.thebostoncalendar.com/events/trouble-with-jellyfish-exhibition-at-le-laboratoire-cambridge--10'
p626
aS'http://www.thebostoncalendar.com/events/irish-music-the-druid-cambridge--77'
p627
aS'http://www.thebostoncalendar.com/events/irish-music-the-druid-cambridge--77'
p628
aS'http://www.thebostoncalendar.comhttp://www.thebostoncalendar.com/events/irish-music-the-druid-cambridge--77'
p629
aS'http://www.thebostoncalendar.com/events/soulelujah--46'
p630
aS'http://www.thebostoncalendar.com/events/soulelujah--46'
p631
aS'http://www.thebostoncalendar.comhttp://www.thebostoncalendar.com/events/soulelujah--46'
p632
aS'http://www.thebostoncalendar.com/events/free-introductory-talk-on-transcendental-meditation-tm--69'
p633
aS'http://www.thebostoncalendar.com/events/free-introductory-talk-on-transcendental-meditation-tm--69'
p634
aS'http://www.thebostoncalendar.comhttp://www.thebostoncalendar.com/events/free-introductory-talk-on-transcendental-meditation-tm--69'
p635
aS'http://www.thebostoncalendar.com/events/bluegrass-pickin-party-at-the-cantab--65'
p636
aS'http://www.thebostoncalendar.com/events/bluegrass-pickin-party-at-the-cantab--65'
p637
aS'http://www.thebostoncalendar.comhttp://www.thebostoncalendar.com/events/bluegrass-pickin-party-at-the-cantab--65'
p638
aS'http://www.thebostoncalendar.com/events/boston-couchsurfing-weekly-meet-up--274'
p639
aS'http://www.thebostoncalendar.com/events/boston-couchsurfing-weekly-meet-up--274'
p640
aS'http://www.thebostoncalendar.comhttp://www.thebostoncalendar.com/events/boston-couchsurfing-weekly-meet-up--274'
p641
aS'http://www.thebostoncalendar.com/events/intro-to-zen-meditation-at-cambridge-zen-center--104'
p642
aS'http://www.thebostoncalendar.com/events/intro-to-zen-meditation-at-cambridge-zen-center--104'
p643
aS'http://www.thebostoncalendar.comhttp://www.thebostoncalendar.com/events/intro-to-zen-meditation-at-cambridge-zen-center--104'
p644
aS'http://www.thebostoncalendar.com/events/trouble-with-jellyfish-exhibition-at-le-laboratoire-cambridge--11'
p645
aS'http://www.thebostoncalendar.com/events/trouble-with-jellyfish-exhibition-at-le-laboratoire-cambridge--11'
p646
aS'http://www.thebostoncalendar.comhttp://www.thebostoncalendar.com/events/trouble-with-jellyfish-exhibition-at-le-laboratoire-cambridge--11'
p647
aS'http://www.thebostoncalendar.com/events/irish-music-the-druid-cambridge--78'
p648
aS'http://www.thebostoncalendar.com/events/irish-music-the-druid-cambridge--78'
p649
aS'http://www.thebostoncalendar.comhttp://www.thebostoncalendar.com/events/irish-music-the-druid-cambridge--78'
p650
aS'http://www.thebostoncalendar.com/events/soulelujah--47'
p651
aS'http://www.thebostoncalendar.com/events/soulelujah--47'
p652
aS'http://www.thebostoncalendar.comhttp://www.thebostoncalendar.com/events/soulelujah--47'
p653
aS'http://www.thebostoncalendar.com/events/boston-couchsurfing-weekly-meet-up--275'
p654
aS'http://www.thebostoncalendar.com/events/boston-couchsurfing-weekly-meet-up--275'
p655
aS'http://www.thebostoncalendar.comhttp://www.thebostoncalendar.com/events/boston-couchsurfing-weekly-meet-up--275'
p656
aS'http://www.thebostoncalendar.com/events/intro-to-zen-meditation-at-cambridge-zen-center--105'
p657
aS'http://www.thebostoncalendar.com/events/intro-to-zen-meditation-at-cambridge-zen-center--105'
p658
aS'http://www.thebostoncalendar.comhttp://www.thebostoncalendar.com/events/intro-to-zen-meditation-at-cambridge-zen-center--105'
p659
aS'http://www.thebostoncalendar.com/events/boston-couchsurfing-weekly-meet-up--276'
p660
aS'http://www.thebostoncalendar.com/events/boston-couchsurfing-weekly-meet-up--276'
p661
aS'http://www.thebostoncalendar.comhttp://www.thebostoncalendar.com/events/boston-couchsurfing-weekly-meet-up--276'
p662
aS'http://www.thebostoncalendar.com/events/intro-to-zen-meditation-at-cambridge-zen-center--106'
p663
aS'http://www.thebostoncalendar.com/events/intro-to-zen-meditation-at-cambridge-zen-center--106'
p664
aS'http://www.thebostoncalendar.comhttp://www.thebostoncalendar.com/events/intro-to-zen-meditation-at-cambridge-zen-center--106'
p665
aS'http://www.thebostoncalendar.com/events/boston-couchsurfing-weekly-meet-up--277'
p666
aS'http://www.thebostoncalendar.com/events/boston-couchsurfing-weekly-meet-up--277'
p667
aS'http://www.thebostoncalendar.comhttp://www.thebostoncalendar.com/events/boston-couchsurfing-weekly-meet-up--277'
p668
aS'http://www.thebostoncalendar.com/events/intro-to-zen-meditation-at-cambridge-zen-center--107'
p669
aS'http://www.thebostoncalendar.com/events/intro-to-zen-meditation-at-cambridge-zen-center--107'
p670
aS'http://www.thebostoncalendar.comhttp://www.thebostoncalendar.com/events/intro-to-zen-meditation-at-cambridge-zen-center--107'
p671
aS'http://www.thebostoncalendar.com/events/boston-couchsurfing-weekly-meet-up--278'
p672
aS'http://www.thebostoncalendar.com/events/boston-couchsurfing-weekly-meet-up--278'
p673
aS'http://www.thebostoncalendar.comhttp://www.thebostoncalendar.com/events/boston-couchsurfing-weekly-meet-up--278'
p674
aS'http://www.thebostoncalendar.com/events/intro-to-zen-meditation-at-cambridge-zen-center--108'
p675
aS'http://www.thebostoncalendar.com/events/intro-to-zen-meditation-at-cambridge-zen-center--108'
p676
aS'http://www.thebostoncalendar.comhttp://www.thebostoncalendar.com/events/intro-to-zen-meditation-at-cambridge-zen-center--108'
p677
aS'http://www.thebostoncalendar.com/events/boston-couchsurfing-weekly-meet-up--279'
p678
aS'http://www.thebostoncalendar.com/events/boston-couchsurfing-weekly-meet-up--279'
p679
aS'http://www.thebostoncalendar.comhttp://www.thebostoncalendar.com/events/boston-couchsurfing-weekly-meet-up--279'
p680
aS'http://www.thebostoncalendar.com/events/intro-to-zen-meditation-at-cambridge-zen-center--109'
p681
aS'http://www.thebostoncalendar.com/events/intro-to-zen-meditation-at-cambridge-zen-center--109'
p682
aS'http://www.thebostoncalendar.comhttp://www.thebostoncalendar.com/events/intro-to-zen-meditation-at-cambridge-zen-center--109'
p683
aS'http://www.thebostoncalendar.com/events/boston-couchsurfing-weekly-meet-up--280'
p684
aS'http://www.thebostoncalendar.com/events/boston-couchsurfing-weekly-meet-up--280'
p685
aS'http://www.thebostoncalendar.comhttp://www.thebostoncalendar.com/events/boston-couchsurfing-weekly-meet-up--280'
p686
aS'http://www.thebostoncalendar.com/events/intro-to-zen-meditation-at-cambridge-zen-center--110'
p687
aS'http://www.thebostoncalendar.com/events/intro-to-zen-meditation-at-cambridge-zen-center--110'
p688
aS'http://www.thebostoncalendar.comhttp://www.thebostoncalendar.com/events/intro-to-zen-meditation-at-cambridge-zen-center--110'
p689
aS'http://www.thebostoncalendar.com/events/cambridge-plastic-bag-ban-goes-into-effect'
p690
aS'http://www.thebostoncalendar.com/events/cambridge-plastic-bag-ban-goes-into-effect'
p691
aS'http://www.thebostoncalendar.comhttp://www.thebostoncalendar.com/events/cambridge-plastic-bag-ban-goes-into-effect'
p692
aS'http://www.thebostoncalendar.com/events/intro-to-zen-meditation-at-cambridge-zen-center--111'
p693
aS'http://www.thebostoncalendar.com/events/intro-to-zen-meditation-at-cambridge-zen-center--111'
p694
aS'http://www.thebostoncalendar.comhttp://www.thebostoncalendar.com/events/intro-to-zen-meditation-at-cambridge-zen-center--111'
p695
aS'http://www.thebostoncalendar.com/events/intro-to-zen-meditation-at-cambridge-zen-center--112'
p696
aS'http://www.thebostoncalendar.com/events/intro-to-zen-meditation-at-cambridge-zen-center--112'
p697
aS'http://www.thebostoncalendar.comhttp://www.thebostoncalendar.com/events/intro-to-zen-meditation-at-cambridge-zen-center--112'
p698
aS'http://www.thebostoncalendar.com/events/intro-to-zen-meditation-at-cambridge-zen-center--113'
p699
aS'http://www.thebostoncalendar.com/events/intro-to-zen-meditation-at-cambridge-zen-center--113'
p700
aS'http://www.thebostoncalendar.comhttp://www.thebostoncalendar.com/events/intro-to-zen-meditation-at-cambridge-zen-center--113'
p701
aS'http://www.thebostoncalendar.com/events/intro-to-zen-meditation-at-cambridge-zen-center--114'
p702
aS'http://www.thebostoncalendar.com/events/intro-to-zen-meditation-at-cambridge-zen-center--114'
p703
aS'http://www.thebostoncalendar.comhttp://www.thebostoncalendar.com/events/intro-to-zen-meditation-at-cambridge-zen-center--114'
p704
aS'http://www.thebostoncalendar.com/events/intro-to-zen-meditation-at-cambridge-zen-center--115'
p705
aS'http://www.thebostoncalendar.com/events/intro-to-zen-meditation-at-cambridge-zen-center--115'
p706
aS'http://www.thebostoncalendar.comhttp://www.thebostoncalendar.com/events/intro-to-zen-meditation-at-cambridge-zen-center--115'
p707
aS'http://www.thebostoncalendar.com/events/intro-to-zen-meditation-at-cambridge-zen-center--116'
p708
aS'http://www.thebostoncalendar.com/events/intro-to-zen-meditation-at-cambridge-zen-center--116'
p709
aS'http://www.thebostoncalendar.comhttp://www.thebostoncalendar.com/events/intro-to-zen-meditation-at-cambridge-zen-center--116'
p710
aS'http://www.thebostoncalendar.com/events/grand-prix-of-boston'
p711
aS'http://www.thebostoncalendar.com/events/grand-prix-of-boston'
p712
aS'http://www.thebostoncalendar.comhttp://www.thebostoncalendar.com/events/grand-prix-of-boston'
p713
a.